; Function Attrs: mustprogress uwtable
define void @_ZN3nix9hashToOIDERKNS_4HashE(ptr dead_on_unwind noalias writable sret(%struct.git_oid) align 1 %0, ptr noundef nonnull align 8 dereferenceable(73) %1) local_unnamed_addr #4 personality ptr @__gxx_personality_v0 {
  %3 = alloca %"class.std::__cxx11::basic_string", align 8
  %4 = alloca %"class.std::__cxx11::basic_string", align 8
  %5 = alloca %"class.std::allocator", align 1
  %6 = alloca %"class.std::__cxx11::basic_string", align 8
  call void @_ZNK3nix4Hash9to_stringB5cxx11ENS_10HashFormatEb(ptr dead_on_unwind nonnull writable sret(%"class.std::__cxx11::basic_string") align 8 %3, ptr noundef nonnull align 8 dereferenceable(73) %1, i32 noundef 2, i1 noundef zeroext false)
  %7 = load ptr, ptr %3, align 8
  %8 = invoke i32 @git_oid_fromstr(ptr noundef %0, ptr noundef %7)
          to label %9 unwind label %20

9:                                                ; preds = %2
  %.not = icmp eq i32 %8, 0
  %10 = load ptr, ptr %3, align 8
  %11 = getelementptr inbounds i8, ptr %3, i64 16
  %12 = icmp eq ptr %10, %11
  br i1 %12, label %_ZNKSt7__cxx1112basic_stringIcSt11char_traitsIcESaIcEE11_M_is_localEv.exit.thread.i.i, label %_ZNKSt7__cxx1112basic_stringIcSt11char_traitsIcESaIcEE11_M_is_localEv.exit.i.i

_ZNKSt7__cxx1112basic_stringIcSt11char_traitsIcESaIcEE11_M_is_localEv.exit.thread.i.i: ; preds = %9
  %13 = getelementptr inbounds i8, ptr %3, i64 8
  %14 = load i64, ptr %13, align 8
  %15 = icmp ult i64 %14, 16
  call void @llvm.assume(i1 %15)
  br label %_ZNSt7__cxx1112basic_stringIcSt11char_traitsIcESaIcEED2Ev.exit

_ZNKSt7__cxx1112basic_stringIcSt11char_traitsIcESaIcEE11_M_is_localEv.exit.i.i: ; preds = %9
  call void @_ZdlPv(ptr noundef %10) #26
  br label %_ZNSt7__cxx1112basic_stringIcSt11char_traitsIcESaIcEED2Ev.exit

_ZNSt7__cxx1112basic_stringIcSt11char_traitsIcESaIcEED2Ev.exit: ; preds = %_ZNKSt7__cxx1112basic_stringIcSt11char_traitsIcESaIcEE11_M_is_localEv.exit.thread.i.i, %_ZNKSt7__cxx1112basic_stringIcSt11char_traitsIcESaIcEE11_M_is_localEv.exit.i.i
  call void @_ZNSaIcED2Ev(ptr noundef nonnull align 1 dereferenceable(1) %3) #25
  br i1 %.not, label %29, label %16

16:                                               ; preds = %_ZNSt7__cxx1112basic_stringIcSt11char_traitsIcESaIcEED2Ev.exit
  %17 = call ptr @__cxa_allocate_exception(i64 376) #25
  call void @_ZNSaIcEC1Ev(ptr noundef nonnull align 1 dereferenceable(1) %5) #25
  invoke void @_ZNSt7__cxx1112basic_stringIcSt11char_traitsIcESaIcEEC2IS3_EEPKcRKS3_(ptr noundef nonnull align 8 dereferenceable(32) %4, ptr noundef nonnull @.str, ptr noundef nonnull align 1 dereferenceable(1) %5)
          to label %18 unwind label %.thread

18:                                               ; preds = %16
  invoke void @_ZNK3nix4Hash9to_stringB5cxx11ENS_10HashFormatEb(ptr dead_on_unwind nonnull writable sret(%"class.std::__cxx11::basic_string") align 8 %6, ptr noundef nonnull align 8 dereferenceable(73) %1, i32 noundef 2, i1 noundef zeroext false)
          to label %_ZNK3nix4Hash6gitRevB5cxx11Ev.exit unwind label %23

_ZNK3nix4Hash6gitRevB5cxx11Ev.exit:               ; preds = %18
  invoke void @_ZN3nix5ErrorCI2NS_9BaseErrorEIJNSt7__cxx1112basic_stringIcSt11char_traitsIcESaIcEEEEEERKS6_DpRKT_(ptr noundef nonnull align 8 dereferenceable(376) %17, ptr noundef nonnull align 8 dereferenceable(32) %4, ptr noundef nonnull align 8 dereferenceable(32) %6)
          to label %19 unwind label %25

19:                                               ; preds = %_ZNK3nix4Hash6gitRevB5cxx11Ev.exit
  invoke void @__cxa_throw(ptr nonnull %17, ptr nonnull @_ZTIN3nix5ErrorE, ptr nonnull @_ZN3nix5ErrorD2Ev) #27
          to label %31 unwind label %25

20:                                               ; preds = %2
  %21 = landingpad { ptr, i32 }
          cleanup
  call void @_ZNSt7__cxx1112basic_stringIcSt11char_traitsIcESaIcEED2Ev(ptr noundef nonnull align 8 dereferenceable(32) %3) #25
  br label %30

.thread:                                          ; preds = %16
  %22 = landingpad { ptr, i32 }
          cleanup
  call void @_ZNSaIcED1Ev(ptr noundef nonnull align 1 dereferenceable(1) %5) #25
  br label %28

23:                                               ; preds = %18
  %24 = landingpad { ptr, i32 }
          cleanup
  br label %27

25:                                               ; preds = %19, %_ZNK3nix4Hash6gitRevB5cxx11Ev.exit
  %.0 = phi i1 [ false, %19 ], [ true, %_ZNK3nix4Hash6gitRevB5cxx11Ev.exit ]
  %26 = landingpad { ptr, i32 }
          cleanup
  call void @_ZNSt7__cxx1112basic_stringIcSt11char_traitsIcESaIcEED2Ev(ptr noundef nonnull align 8 dereferenceable(32) %6) #25
  br label %27

27:                                               ; preds = %23, %25
  %.pn = phi { ptr, i32 } [ %26, %25 ], [ %24, %23 ]
  %.1 = phi i1 [ %.0, %25 ], [ true, %23 ]
  call void @_ZNSt7__cxx1112basic_stringIcSt11char_traitsIcESaIcEED2Ev(ptr noundef nonnull align 8 dereferenceable(32) %4) #25
  call void @_ZNSaIcED1Ev(ptr noundef nonnull align 1 dereferenceable(1) %5) #25
  br i1 %.1, label %28, label %30

28:                                               ; preds = %.thread, %27
  %.pn.pn15 = phi { ptr, i32 } [ %22, %.thread ], [ %.pn, %27 ]
  call void @__cxa_free_exception(ptr %17) #25
  br label %30

29:                                               ; preds = %_ZNSt7__cxx1112basic_stringIcSt11char_traitsIcESaIcEED2Ev.exit
  ret void

30:                                               ; preds = %27, %28, %20
  %.pn.pn.pn = phi { ptr, i32 } [ %.pn.pn15, %28 ], [ %.pn, %27 ], [ %21, %20 ]
  resume { ptr, i32 } %.pn.pn.pn

31:                                               ; preds = %19
  unreachable
}